ccopy_reg
_reconstructor
p0
(cKicad_action_plugins.save_restore_layout.save_restore_layout
LayoutData
p1
c__builtin__
tuple
p2
(V(kicad_pcb (version 20171130) (host pcbnew "(5.1.6-0-10_14)")\u000a\u000a  (general\u000a    (thickness 1.6)\u000a    (drawings 0)\u000a    (tracks 21)\u000a    (zones 0)\u000a    (modules 5)\u000a    (nets 14)\u000a  )\u000a\u000a  (page A4)\u000a  (layers\u000a    (0 F.Cu signal)\u000a    (31 B.Cu signal)\u000a    (32 B.Adhes user)\u000a    (33 F.Adhes user)\u000a    (34 B.Paste user)\u000a    (35 F.Paste user)\u000a    (36 B.SilkS user)\u000a    (37 F.SilkS user)\u000a    (38 B.Mask user)\u000a    (39 F.Mask user)\u000a    (40 Dwgs.User user)\u000a    (41 Cmts.User user)\u000a    (42 Eco1.User user)\u000a    (43 Eco2.User user)\u000a    (44 Edge.Cuts user)\u000a    (45 Margin user)\u000a    (46 B.CrtYd user)\u000a    (47 F.CrtYd user)\u000a    (48 B.Fab user)\u000a    (49 F.Fab user)\u000a  )\u000a\u000a  (setup\u000a    (last_trace_width 0.25)\u000a    (trace_clearance 0.2)\u000a    (zone_clearance 0.508)\u000a    (zone_45_only no)\u000a    (trace_min 0.2)\u000a    (via_size 0.8)\u000a    (via_drill 0.4)\u000a    (via_min_size 0.4)\u000a    (via_min_drill 0.3)\u000a    (uvia_size 0.3)\u000a    (uvia_drill 0.1)\u000a    (uvias_allowed no)\u000a    (uvia_min_size 0.2)\u000a    (uvia_min_drill 0.1)\u000a    (edge_width 0.05)\u000a    (segment_width 0.2)\u000a    (pcb_text_width 0.3)\u000a    (pcb_text_size 1.5 1.5)\u000a    (mod_edge_width 0.12)\u000a    (mod_text_size 1 1)\u000a    (mod_text_width 0.15)\u000a    (pad_size 1.524 1.524)\u000a    (pad_drill 0.762)\u000a    (pad_to_mask_clearance 0.05)\u000a    (aux_axis_origin 0 0)\u000a    (visible_elements FFFFFF7F)\u000a    (pcbplotparams\u000a      (layerselection 0x010fc_ffffffff)\u000a      (usegerberextensions false)\u000a      (usegerberattributes true)\u000a      (usegerberadvancedattributes true)\u000a      (creategerberjobfile true)\u000a      (excludeedgelayer true)\u000a      (linewidth 0.100000)\u000a      (plotframeref false)\u000a      (viasonmask false)\u000a      (mode 1)\u000a      (useauxorigin false)\u000a      (hpglpennumber 1)\u000a      (hpglpenspeed 20)\u000a      (hpglpendiameter 15.000000)\u000a      (psnegative false)\u000a      (psa4output false)\u000a      (plotreference true)\u000a      (plotvalue true)\u000a      (plotinvisibletext false)\u000a      (padsonsilk false)\u000a      (subtractmaskfromsilk false)\u000a      (outputformat 1)\u000a      (mirror false)\u000a      (drillshape 1)\u000a      (scaleselection 1)\u000a      (outputdirectory ""))\u000a  )\u000a\u000a  (net 0 "")\u000a  (net 1 GND)\u000a  (net 2 "Net-(C201-Pad1)")\u000a  (net 3 "Net-(R201-Pad1)")\u000a  (net 4 /Sheet6068B77F/sq1)\u000a  (net 5 "Net-(U201-Pad14)")\u000a  (net 6 "Net-(U201-Pad7)")\u000a  (net 7 "Net-(U201-Pad13)")\u000a  (net 8 "Net-(U201-Pad6)")\u000a  (net 9 "Net-(U201-Pad12)")\u000a  (net 10 "Net-(U201-Pad5)")\u000a  (net 11 "Net-(U201-Pad11)")\u000a  (net 12 "Net-(U201-Pad4)")\u000a  (net 13 /Sheet6068B77F/tri1)\u000a\u000a  (net_class Default "This is the default net class."\u000a    (clearance 0.2)\u000a    (trace_width 0.25)\u000a    (via_dia 0.8)\u000a    (via_drill 0.4)\u000a    (uvia_dia 0.3)\u000a    (uvia_drill 0.1)\u000a    (add_net /Sheet6068B77F/sq1)\u000a    (add_net /Sheet6068B77F/tri1)\u000a    (add_net GND)\u000a    (add_net "Net-(C201-Pad1)")\u000a    (add_net "Net-(R201-Pad1)")\u000a    (add_net "Net-(U201-Pad11)")\u000a    (add_net "Net-(U201-Pad12)")\u000a    (add_net "Net-(U201-Pad13)")\u000a    (add_net "Net-(U201-Pad14)")\u000a    (add_net "Net-(U201-Pad4)")\u000a    (add_net "Net-(U201-Pad5)")\u000a    (add_net "Net-(U201-Pad6)")\u000a    (add_net "Net-(U201-Pad7)")\u000a  )\u000a\u000a  (module Package_DIP:DIP-14_W7.62mm (layer F.Cu) (tedit 5A02E8C5) (tstamp 6068F1C6)\u000a    (at 93.98 69.18)\u000a    (descr "14-lead though-hole mounted DIP package, row spacing 7.62 mm (300 mils)")\u000a    (tags "THT DIP DIL PDIP 2.54mm 7.62mm 300mil")\u000a    (path /6068B780/60689410)\u000a    (fp_text reference U201 (at 3.81 -2.33) (layer F.SilkS)\u000a      (effects (font (size 1 1) (thickness 0.15)))\u000a    )\u000a    (fp_text value LM324 (at 3.81 17.57) (layer F.Fab)\u000a      (effects (font (size 1 1) (thickness 0.15)))\u000a    )\u000a    (fp_line (start 1.635 -1.27) (end 6.985 -1.27) (layer F.Fab) (width 0.1))\u000a    (fp_line (start 6.985 -1.27) (end 6.985 16.51) (layer F.Fab) (width 0.1))\u000a    (fp_line (start 6.985 16.51) (end 0.635 16.51) (layer F.Fab) (width 0.1))\u000a    (fp_line (start 0.635 16.51) (end 0.635 -0.27) (layer F.Fab) (width 0.1))\u000a    (fp_line (start 0.635 -0.27) (end 1.635 -1.27) (layer F.Fab) (width 0.1))\u000a    (fp_line (start 2.81 -1.33) (end 1.16 -1.33) (layer F.SilkS) (width 0.12))\u000a    (fp_line (start 1.16 -1.33) (end 1.16 16.57) (layer F.SilkS) (width 0.12))\u000a    (fp_line (start 1.16 16.57) (end 6.46 16.57) (layer F.SilkS) (width 0.12))\u000a    (fp_line (start 6.46 16.57) (end 6.46 -1.33) (layer F.SilkS) (width 0.12))\u000a    (fp_line (start 6.46 -1.33) (end 4.81 -1.33) (layer F.SilkS) (width 0.12))\u000a    (fp_line (start -1.1 -1.55) (end -1.1 16.8) (layer F.CrtYd) (width 0.05))\u000a    (fp_line (start -1.1 16.8) (end 8.7 16.8) (layer F.CrtYd) (width 0.05))\u000a    (fp_line (start 8.7 16.8) (end 8.7 -1.55) (layer F.CrtYd) (width 0.05))\u000a    (fp_line (start 8.7 -1.55) (end -1.1 -1.55) (layer F.CrtYd) (width 0.05))\u000a    (fp_text user %R (at 3.81 7.62) (layer F.Fab)\u000a      (effects (font (size 1 1) (thickness 0.15)))\u000a    )\u000a    (fp_arc (start 3.81 -1.33) (end 2.81 -1.33) (angle -180) (layer F.SilkS) (width 0.12))\u000a    (pad 14 thru_hole oval (at 7.62 0) (size 1.6 1.6) (drill 0.8) (layers *.Cu *.Mask)\u000a      (net 5 "Net-(U201-Pad14)"))\u000a    (pad 7 thru_hole oval (at 0 15.24) (size 1.6 1.6) (drill 0.8) (layers *.Cu *.Mask)\u000a      (net 6 "Net-(U201-Pad7)"))\u000a    (pad 13 thru_hole oval (at 7.62 2.54) (size 1.6 1.6) (drill 0.8) (layers *.Cu *.Mask)\u000a      (net 7 "Net-(U201-Pad13)"))\u000a    (pad 6 thru_hole oval (at 0 12.7) (size 1.6 1.6) (drill 0.8) (layers *.Cu *.Mask)\u000a      (net 8 "Net-(U201-Pad6)"))\u000a    (pad 12 thru_hole oval (at 7.62 5.08) (size 1.6 1.6) (drill 0.8) (layers *.Cu *.Mask)\u000a      (net 9 "Net-(U201-Pad12)"))\u000a    (pad 5 thru_hole oval (at 0 10.16) (size 1.6 1.6) (drill 0.8) (layers *.Cu *.Mask)\u000a      (net 10 "Net-(U201-Pad5)"))\u000a    (pad 11 thru_hole oval (at 7.62 7.62) (size 1.6 1.6) (drill 0.8) (layers *.Cu *.Mask)\u000a      (net 11 "Net-(U201-Pad11)"))\u000a    (pad 4 thru_hole oval (at 0 7.62) (size 1.6 1.6) (drill 0.8) (layers *.Cu *.Mask)\u000a      (net 12 "Net-(U201-Pad4)"))\u000a    (pad 10 thru_hole oval (at 7.62 10.16) (size 1.6 1.6) (drill 0.8) (layers *.Cu *.Mask)\u000a      (net 2 "Net-(C201-Pad1)"))\u000a    (pad 3 thru_hole oval (at 0 5.08) (size 1.6 1.6) (drill 0.8) (layers *.Cu *.Mask)\u000a      (net 3 "Net-(R201-Pad1)"))\u000a    (pad 9 thru_hole oval (at 7.62 12.7) (size 1.6 1.6) (drill 0.8) (layers *.Cu *.Mask)\u000a      (net 1 GND))\u000a    (pad 2 thru_hole oval (at 0 2.54) (size 1.6 1.6) (drill 0.8) (layers *.Cu *.Mask)\u000a      (net 13 /Sheet6068B77F/tri1))\u000a    (pad 8 thru_hole oval (at 7.62 15.24) (size 1.6 1.6) (drill 0.8) (layers *.Cu *.Mask)\u000a      (net 13 /Sheet6068B77F/tri1))\u000a    (pad 1 thru_hole rect (at 0 0) (size 1.6 1.6) (drill 0.8) (layers *.Cu *.Mask)\u000a      (net 4 /Sheet6068B77F/sq1))\u000a    (model ${KISYS3DMOD}/Package_DIP.3dshapes/DIP-14_W7.62mm.wrl\u000a      (at (xyz 0 0 0))\u000a      (scale (xyz 1 1 1))\u000a      (rotate (xyz 0 0 0))\u000a    )\u000a  )\u000a\u000a  (module Resistor_SMD:R_0805_2012Metric (layer F.Cu) (tedit 5B36C52B) (tstamp 6068F1A4)\u000a    (at 85.09 68.58)\u000a    (descr "Resistor SMD 0805 (2012 Metric), square (rectangular) end terminal, IPC_7351 nominal, (Body size source: https://docs.google.com/spreadsheets/d/1BsfQQcO9C6DZCsRaXUlFlo91Tg2WpOkGARC1WS5S8t0/edit?usp=sharing), generated with kicad-footprint-generator")\u000a    (tags resistor)\u000a    (path /6068B780/606A4E78)\u000a    (attr smd)\u000a    (fp_text reference R203 (at 0 -1.65) (layer F.SilkS)\u000a      (effects (font (size 1 1) (thickness 0.15)))\u000a    )\u000a    (fp_text value 10k (at 0 1.65) (layer F.Fab)\u000a      (effects (font (size 1 1) (thickness 0.15)))\u000a    )\u000a    (fp_line (start -1 0.6) (end -1 -0.6) (layer F.Fab) (width 0.1))\u000a    (fp_line (start -1 -0.6) (end 1 -0.6) (layer F.Fab) (width 0.1))\u000a    (fp_line (start 1 -0.6) (end 1 0.6) (layer F.Fab) (width 0.1))\u000a    (fp_line (start 1 0.6) (end -1 0.6) (layer F.Fab) (width 0.1))\u000a    (fp_line (start -0.258578 -0.71) (end 0.258578 -0.71) (layer F.SilkS) (width 0.12))\u000a    (fp_line (start -0.258578 0.71) (end 0.258578 0.71) (layer F.SilkS) (width 0.12))\u000a    (fp_line (start -1.68 0.95) (end -1.68 -0.95) (layer F.CrtYd) (width 0.05))\u000a    (fp_line (start -1.68 -0.95) (end 1.68 -0.95) (layer F.CrtYd) (width 0.05))\u000a    (fp_line (start 1.68 -0.95) (end 1.68 0.95) (layer F.CrtYd) (width 0.05))\u000a    (fp_line (start 1.68 0.95) (end -1.68 0.95) (layer F.CrtYd) (width 0.05))\u000a    (fp_text user %R (at 0 0) (layer F.Fab)\u000a      (effects (font (size 0.5 0.5) (thickness 0.08)))\u000a    )\u000a    (pad 2 smd roundrect (at 0.9375 0) (size 0.975 1.4) (layers F.Cu F.Paste F.Mask) (roundrect_rratio 0.25)\u000a      (net 4 /Sheet6068B77F/sq1))\u000a    (pad 1 smd roundrect (at -0.9375 0) (size 0.975 1.4) (layers F.Cu F.Paste F.Mask) (roundrect_rratio 0.25)\u000a      (net 2 "Net-(C201-Pad1)"))\u000a    (model ${KISYS3DMOD}/Resistor_SMD.3dshapes/R_0805_2012Metric.wrl\u000a      (at (xyz 0 0 0))\u000a      (scale (xyz 1 1 1))\u000a      (rotate (xyz 0 0 0))\u000a    )\u000a  )\u000a\u000a  (module Resistor_SMD:R_0805_2012Metric (layer F.Cu) (tedit 5B36C52B) (tstamp 6068F193)\u000a    (at 85.09 73.66 180)\u000a    (descr "Resistor SMD 0805 (2012 Metric), square (rectangular) end terminal, IPC_7351 nominal, (Body size source: https://docs.google.com/spreadsheets/d/1BsfQQcO9C6DZCsRaXUlFlo91Tg2WpOkGARC1WS5S8t0/edit?usp=sharing), generated with kicad-footprint-generator")\u000a    (tags resistor)\u000a    (path /6068B780/60690B76)\u000a    (attr smd)\u000a    (fp_text reference R202 (at 0 -1.65) (layer F.SilkS)\u000a      (effects (font (size 1 1) (thickness 0.15)))\u000a    )\u000a    (fp_text value 10k (at 0 1.65) (layer F.Fab)\u000a      (effects (font (size 1 1) (thickness 0.15)))\u000a    )\u000a    (fp_line (start -1 0.6) (end -1 -0.6) (layer F.Fab) (width 0.1))\u000a    (fp_line (start -1 -0.6) (end 1 -0.6) (layer F.Fab) (width 0.1))\u000a    (fp_line (start 1 -0.6) (end 1 0.6) (layer F.Fab) (width 0.1))\u000a    (fp_line (start 1 0.6) (end -1 0.6) (layer F.Fab) (width 0.1))\u000a    (fp_line (start -0.258578 -0.71) (end 0.258578 -0.71) (layer F.SilkS) (width 0.12))\u000a    (fp_line (start -0.258578 0.71) (end 0.258578 0.71) (layer F.SilkS) (width 0.12))\u000a    (fp_line (start -1.68 0.95) (end -1.68 -0.95) (layer F.CrtYd) (width 0.05))\u000a    (fp_line (start -1.68 -0.95) (end 1.68 -0.95) (layer F.CrtYd) (width 0.05))\u000a    (fp_line (start 1.68 -0.95) (end 1.68 0.95) (layer F.CrtYd) (width 0.05))\u000a    (fp_line (start 1.68 0.95) (end -1.68 0.95) (layer F.CrtYd) (width 0.05))\u000a    (fp_text user %R (at 0 0) (layer F.Fab)\u000a      (effects (font (size 0.5 0.5) (thickness 0.08)))\u000a    )\u000a    (pad 2 smd roundrect (at 0.9375 0 180) (size 0.975 1.4) (layers F.Cu F.Paste F.Mask) (roundrect_rratio 0.25)\u000a      (net 3 "Net-(R201-Pad1)"))\u000a    (pad 1 smd roundrect (at -0.9375 0 180) (size 0.975 1.4) (layers F.Cu F.Paste F.Mask) (roundrect_rratio 0.25)\u000a      (net 4 /Sheet6068B77F/sq1))\u000a    (model ${KISYS3DMOD}/Resistor_SMD.3dshapes/R_0805_2012Metric.wrl\u000a      (at (xyz 0 0 0))\u000a      (scale (xyz 1 1 1))\u000a      (rotate (xyz 0 0 0))\u000a    )\u000a  )\u000a\u000a  (module Resistor_SMD:R_0805_2012Metric (layer F.Cu) (tedit 5B36C52B) (tstamp 6068F182)\u000a    (at 85.09 81.28)\u000a    (descr "Resistor SMD 0805 (2012 Metric), square (rectangular) end terminal, IPC_7351 nominal, (Body size source: https://docs.google.com/spreadsheets/d/1BsfQQcO9C6DZCsRaXUlFlo91Tg2WpOkGARC1WS5S8t0/edit?usp=sharing), generated with kicad-footprint-generator")\u000a    (tags resistor)\u000a    (path /6068B780/606916FA)\u000a    (attr smd)\u000a    (fp_text reference R201 (at 0 -1.65) (layer F.SilkS)\u000a      (effects (font (size 1 1) (thickness 0.15)))\u000a    )\u000a    (fp_text value 10k (at 0 1.65) (layer F.Fab)\u000a      (effects (font (size 1 1) (thickness 0.15)))\u000a    )\u000a    (fp_line (start -1 0.6) (end -1 -0.6) (layer F.Fab) (width 0.1))\u000a    (fp_line (start -1 -0.6) (end 1 -0.6) (layer F.Fab) (width 0.1))\u000a    (fp_line (start 1 -0.6) (end 1 0.6) (layer F.Fab) (width 0.1))\u000a    (fp_line (start 1 0.6) (end -1 0.6) (layer F.Fab) (width 0.1))\u000a    (fp_line (start -0.258578 -0.71) (end 0.258578 -0.71) (layer F.SilkS) (width 0.12))\u000a    (fp_line (start -0.258578 0.71) (end 0.258578 0.71) (layer F.SilkS) (width 0.12))\u000a    (fp_line (start -1.68 0.95) (end -1.68 -0.95) (layer F.CrtYd) (width 0.05))\u000a    (fp_line (start -1.68 -0.95) (end 1.68 -0.95) (layer F.CrtYd) (width 0.05))\u000a    (fp_line (start 1.68 -0.95) (end 1.68 0.95) (layer F.CrtYd) (width 0.05))\u000a    (fp_line (start 1.68 0.95) (end -1.68 0.95) (layer F.CrtYd) (width 0.05))\u000a    (fp_text user %R (at 0 0) (layer F.Fab)\u000a      (effects (font (size 0.5 0.5) (thickness 0.08)))\u000a    )\u000a    (pad 2 smd roundrect (at 0.9375 0) (size 0.975 1.4) (layers F.Cu F.Paste F.Mask) (roundrect_rratio 0.25)\u000a      (net 1 GND))\u000a    (pad 1 smd roundrect (at -0.9375 0) (size 0.975 1.4) (layers F.Cu F.Paste F.Mask) (roundrect_rratio 0.25)\u000a      (net 3 "Net-(R201-Pad1)"))\u000a    (model ${KISYS3DMOD}/Resistor_SMD.3dshapes/R_0805_2012Metric.wrl\u000a      (at (xyz 0 0 0))\u000a      (scale (xyz 1 1 1))\u000a      (rotate (xyz 0 0 0))\u000a    )\u000a  )\u000a\u000a  (module Capacitor_SMD:C_0805_2012Metric (layer F.Cu) (tedit 5B36C52B) (tstamp 6068F171)\u000a    (at 105.41 68.58)\u000a    (descr "Capacitor SMD 0805 (2012 Metric), square (rectangular) end terminal, IPC_7351 nominal, (Body size source: https://docs.google.com/spreadsheets/d/1BsfQQcO9C6DZCsRaXUlFlo91Tg2WpOkGARC1WS5S8t0/edit?usp=sharing), generated with kicad-footprint-generator")\u000a    (tags capacitor)\u000a    (path /6068B780/60693A0B)\u000a    (attr smd)\u000a    (fp_text reference C201 (at 0 -1.65) (layer F.SilkS)\u000a      (effects (font (size 1 1) (thickness 0.15)))\u000a    )\u000a    (fp_text value 100n (at 0 1.65) (layer F.Fab)\u000a      (effects (font (size 1 1) (thickness 0.15)))\u000a    )\u000a    (fp_line (start -1 0.6) (end -1 -0.6) (layer F.Fab) (width 0.1))\u000a    (fp_line (start -1 -0.6) (end 1 -0.6) (layer F.Fab) (width 0.1))\u000a    (fp_line (start 1 -0.6) (end 1 0.6) (layer F.Fab) (width 0.1))\u000a    (fp_line (start 1 0.6) (end -1 0.6) (layer F.Fab) (width 0.1))\u000a    (fp_line (start -0.258578 -0.71) (end 0.258578 -0.71) (layer F.SilkS) (width 0.12))\u000a    (fp_line (start -0.258578 0.71) (end 0.258578 0.71) (layer F.SilkS) (width 0.12))\u000a    (fp_line (start -1.68 0.95) (end -1.68 -0.95) (layer F.CrtYd) (width 0.05))\u000a    (fp_line (start -1.68 -0.95) (end 1.68 -0.95) (layer F.CrtYd) (width 0.05))\u000a    (fp_line (start 1.68 -0.95) (end 1.68 0.95) (layer F.CrtYd) (width 0.05))\u000a    (fp_line (start 1.68 0.95) (end -1.68 0.95) (layer F.CrtYd) (width 0.05))\u000a    (fp_text user %R (at 0 0) (layer F.Fab)\u000a      (effects (font (size 0.5 0.5) (thickness 0.08)))\u000a    )\u000a    (pad 2 smd roundrect (at 0.9375 0) (size 0.975 1.4) (layers F.Cu F.Paste F.Mask) (roundrect_rratio 0.25)\u000a      (net 1 GND))\u000a    (pad 1 smd roundrect (at -0.9375 0) (size 0.975 1.4) (layers F.Cu F.Paste F.Mask) (roundrect_rratio 0.25)\u000a      (net 2 "Net-(C201-Pad1)"))\u000a    (model ${KISYS3DMOD}/Capacitor_SMD.3dshapes/C_0805_2012Metric.wrl\u000a      (at (xyz 0 0 0))\u000a      (scale (xyz 1 1 1))\u000a      (rotate (xyz 0 0 0))\u000a    )\u000a  )\u000a\u000a  (segment (start 101.6 81.88) (end 104.81 81.88) (width 0.25) (layer F.Cu) (net 1))\u000a  (segment (start 106.3475 80.3425) (end 106.3475 68.58) (width 0.25) (layer F.Cu) (net 1))\u000a  (segment (start 104.81 81.88) (end 106.3475 80.3425) (width 0.25) (layer F.Cu) (net 1))\u000a  (segment (start 86.0275 81.28) (end 86.0275 83.4875) (width 0.25) (layer F.Cu) (net 1))\u000a  (segment (start 101.6 79.34) (end 104.14 76.8) (width 0.25) (layer F.Cu) (net 2))\u000a  (segment (start 104.14 68.9125) (end 104.4725 68.58) (width 0.25) (layer F.Cu) (net 2))\u000a  (segment (start 104.14 76.8) (end 104.14 68.9125) (width 0.25) (layer F.Cu) (net 2))\u000a  (segment (start 84.1525 73.66) (end 84.1525 75.2625) (width 0.25) (layer F.Cu) (net 3))\u000a  (segment (start 84.1525 75.2625) (end 85.09 76.2) (width 0.25) (layer F.Cu) (net 3))\u000a  (segment (start 92.04 76.2) (end 93.98 74.26) (width 0.25) (layer F.Cu) (net 3))\u000a  (segment (start 85.09 76.2) (end 92.04 76.2) (width 0.25) (layer F.Cu) (net 3))\u000a  (segment (start 84.1525 81.28) (end 84.1525 77.1375) (width 0.25) (layer F.Cu) (net 3))\u000a  (segment (start 84.1525 77.1375) (end 85.09 76.2) (width 0.25) (layer F.Cu) (net 3))\u000a  (segment (start 86.6275 69.18) (end 86.0275 68.58) (width 0.25) (layer F.Cu) (net 4))\u000a  (segment (start 93.98 69.18) (end 86.6275 69.18) (width 0.25) (layer F.Cu) (net 4))\u000a  (segment (start 86.0275 68.58) (end 86.0275 73.66) (width 0.25) (layer F.Cu) (net 4))\u000a  (segment (start 97.79 82.55) (end 99.66 84.42) (width 0.25) (layer F.Cu) (net 13))\u000a  (segment (start 97.79 73.66) (end 97.79 82.55) (width 0.25) (layer F.Cu) (net 13))\u000a  (segment (start 95.85 71.72) (end 97.79 73.66) (width 0.25) (layer F.Cu) (net 13))\u000a  (segment (start 99.66 84.42) (end 101.6 84.42) (width 0.25) (layer F.Cu) (net 13))\u000a  (segment (start 93.98 71.72) (end 95.85 71.72) (width 0.25) (layer F.Cu) (net 13))\u000a\u000a)\u000a
p3
S'd234123c089389a67bc46804d53438ff'
p4
(dp5
V6068B780
p6
(lp7
VSheet6068B77F
p8
aVbasic.sch
p9
as(lp10
VNet-(U201-Pad14)
p11
aVNet-(U201-Pad7)
p12
aVNet-(U201-Pad13)
p13
aVNet-(U201-Pad6)
p14
aVNet-(U201-Pad12)
p15
aVNet-(U201-Pad5)
p16
aVNet-(U201-Pad11)
p17
aVNet-(U201-Pad4)
p18
aVNet-(C201-Pad1)
p19
aVNet-(R201-Pad1)
p20
aVGND
p21
aV/Sheet6068B77F/tri1
p22
aV/Sheet6068B77F/sq1
p23
a(lp24
g8
a(lp25
g9
atp26
tp27
Rp28
.